; Function Attrs: mustprogress uwtable
define hidden noundef zeroext i1 @_ZN6memory20above_high_watermarkEv() local_unnamed_addr #3 align 2 personality ptr @__gxx_personality_v0 {
  %1 = load i64, ptr @_ZL18g_memory_watermark, align 8, !tbaa !12
  %2 = icmp eq i64 %1, 0
  br i1 %2, label %11, label %3

3:                                                ; preds = %0
  %4 = load ptr, ptr @_ZL12g_memory_mux, align 8, !tbaa !14
  %5 = tail call noundef i32 @pthread_mutex_lock(ptr noundef nonnull align 8 dereferenceable(40) %4) #25
  %.not.i.i = icmp eq i32 %5, 0
  br i1 %.not.i.i, label %_ZNSt10lock_guardISt5mutexEC2ERS0_.exit, label %6

6:                                                ; preds = %3
  tail call void @_ZSt20__throw_system_errori(i32 noundef %5) #26
  unreachable

_ZNSt10lock_guardISt5mutexEC2ERS0_.exit:          ; preds = %3
  %7 = load i64, ptr @_ZL18g_memory_watermark, align 8, !tbaa !12
  %8 = load i64, ptr @_ZL19g_memory_alloc_size, align 8, !tbaa !12
  %9 = icmp slt i64 %7, %8
  %10 = tail call noundef i32 @pthread_mutex_unlock(ptr noundef nonnull align 8 dereferenceable(40) %4) #25
  br label %11

11:                                               ; preds = %0, %_ZNSt10lock_guardISt5mutexEC2ERS0_.exit
  %.0 = phi i1 [ %9, %_ZNSt10lock_guardISt5mutexEC2ERS0_.exit ], [ false, %0 ]
  ret i1 %.0
}